; Function Attrs: nounwind uwtable
define internal void @scb_error_callback(ptr noundef readonly captures(none) %0) #0 {
  %2 = tail call i32 @geterrcode() #22
  %.not = icmp eq i32 %2, 67371461
  br i1 %.not, label %scanner_errposition.exit, label %3

3:                                                ; preds = %1
  %4 = getelementptr inbounds nuw i8, ptr %0, i64 8
  %5 = load i32, ptr %4, align 8
  %6 = icmp slt i32 %5, 0
  br i1 %6, label %scanner_errposition.exit, label %7

7:                                                ; preds = %3
  %8 = load ptr, ptr %0, align 8
  %9 = load ptr, ptr %8, align 8
  %10 = load ptr, ptr %9, align 8
  %11 = tail call i32 @pg_mbstrlen_with_len(ptr noundef %10, i32 noundef %5) #22
  %12 = add i32 %11, 1
  %13 = tail call i32 @errposition(i32 noundef %12) #22
  br label %scanner_errposition.exit

scanner_errposition.exit:                         ; preds = %7, %3, %1
  ret void
}